target datalayout = "e-m:e-p270:32:32-p271:32:32-p272:64:64-i64:64-i128:128-f80:128-n8:16:32:64-S128"
target triple = "x86_64-pc-linux-gnu"

; Function Attrs: mustprogress uwtable
define hidden void @_ZN2cv3mcc11CChartModel5rot90ERKNS_17_InputOutputArrayEi(ptr noundef nonnull align 8 dereferenceable(112) %0, ptr noundef nonnull align 8 dereferenceable(24) %1, i32 noundef %2) #6 align 2 {
  %4 = alloca ptr, align 8
  %5 = alloca ptr, align 8
  %6 = alloca i32, align 4
  store ptr %0, ptr %4, align 8, !tbaa !13
  store ptr %1, ptr %5, align 8, !tbaa !118
  store i32 %2, ptr %6, align 4, !tbaa !18
  %7 = load i32, ptr %6, align 4, !tbaa !18
  switch i32 %7, label %43 [
    i32 1, label %8
    i32 2, label %13
    i32 3, label %16
    i32 4, label %21
    i32 5, label %24
    i32 6, label %31
    i32 7, label %36
  ]

8:                                                ; preds = %3
  %9 = load ptr, ptr %5, align 8, !tbaa !118
  %10 = load ptr, ptr %5, align 8, !tbaa !118
  call void @_ZN2cv9transposeERKNS_11_InputArrayERKNS_12_OutputArrayE(ptr noundef nonnull align 8 dereferenceable(24) %9, ptr noundef nonnull align 8 dereferenceable(24) %10)
  %11 = load ptr, ptr %5, align 8, !tbaa !118
  %12 = load ptr, ptr %5, align 8, !tbaa !118
  call void @_ZN2cv4flipERKNS_11_InputArrayERKNS_12_OutputArrayEi(ptr noundef nonnull align 8 dereferenceable(24) %11, ptr noundef nonnull align 8 dereferenceable(24) %12, i32 noundef 1)
  br label %43

13:                                               ; preds = %3
  %14 = load ptr, ptr %5, align 8, !tbaa !118
  %15 = load ptr, ptr %5, align 8, !tbaa !118
  call void @_ZN2cv4flipERKNS_11_InputArrayERKNS_12_OutputArrayEi(ptr noundef nonnull align 8 dereferenceable(24) %14, ptr noundef nonnull align 8 dereferenceable(24) %15, i32 noundef -1)
  br label %43

16:                                               ; preds = %3
  %17 = load ptr, ptr %5, align 8, !tbaa !118
  %18 = load ptr, ptr %5, align 8, !tbaa !118
  call void @_ZN2cv9transposeERKNS_11_InputArrayERKNS_12_OutputArrayE(ptr noundef nonnull align 8 dereferenceable(24) %17, ptr noundef nonnull align 8 dereferenceable(24) %18)
  %19 = load ptr, ptr %5, align 8, !tbaa !118
  %20 = load ptr, ptr %5, align 8, !tbaa !118
  call void @_ZN2cv4flipERKNS_11_InputArrayERKNS_12_OutputArrayEi(ptr noundef nonnull align 8 dereferenceable(24) %19, ptr noundef nonnull align 8 dereferenceable(24) %20, i32 noundef 0)
  br label %43

21:                                               ; preds = %3
  %22 = load ptr, ptr %5, align 8, !tbaa !118
  %23 = load ptr, ptr %5, align 8, !tbaa !118
  call void @_ZN2cv4flipERKNS_11_InputArrayERKNS_12_OutputArrayEi(ptr noundef nonnull align 8 dereferenceable(24) %22, ptr noundef nonnull align 8 dereferenceable(24) %23, i32 noundef 1)
  br label %43

24:                                               ; preds = %3
  %25 = load ptr, ptr %5, align 8, !tbaa !118
  %26 = load ptr, ptr %5, align 8, !tbaa !118
  call void @_ZN2cv4flipERKNS_11_InputArrayERKNS_12_OutputArrayEi(ptr noundef nonnull align 8 dereferenceable(24) %25, ptr noundef nonnull align 8 dereferenceable(24) %26, i32 noundef 1)
  %27 = load ptr, ptr %5, align 8, !tbaa !118
  %28 = load ptr, ptr %5, align 8, !tbaa !118
  call void @_ZN2cv9transposeERKNS_11_InputArrayERKNS_12_OutputArrayE(ptr noundef nonnull align 8 dereferenceable(24) %27, ptr noundef nonnull align 8 dereferenceable(24) %28)
  %29 = load ptr, ptr %5, align 8, !tbaa !118
  %30 = load ptr, ptr %5, align 8, !tbaa !118
  call void @_ZN2cv4flipERKNS_11_InputArrayERKNS_12_OutputArrayEi(ptr noundef nonnull align 8 dereferenceable(24) %29, ptr noundef nonnull align 8 dereferenceable(24) %30, i32 noundef 1)
  br label %43

31:                                               ; preds = %3
  %32 = load ptr, ptr %5, align 8, !tbaa !118
  %33 = load ptr, ptr %5, align 8, !tbaa !118
  call void @_ZN2cv4flipERKNS_11_InputArrayERKNS_12_OutputArrayEi(ptr noundef nonnull align 8 dereferenceable(24) %32, ptr noundef nonnull align 8 dereferenceable(24) %33, i32 noundef 1)
  %34 = load ptr, ptr %5, align 8, !tbaa !118
  %35 = load ptr, ptr %5, align 8, !tbaa !118
  call void @_ZN2cv4flipERKNS_11_InputArrayERKNS_12_OutputArrayEi(ptr noundef nonnull align 8 dereferenceable(24) %34, ptr noundef nonnull align 8 dereferenceable(24) %35, i32 noundef -1)
  br label %43

36:                                               ; preds = %3
  %37 = load ptr, ptr %5, align 8, !tbaa !118
  %38 = load ptr, ptr %5, align 8, !tbaa !118
  call void @_ZN2cv4flipERKNS_11_InputArrayERKNS_12_OutputArrayEi(ptr noundef nonnull align 8 dereferenceable(24) %37, ptr noundef nonnull align 8 dereferenceable(24) %38, i32 noundef 1)
  %39 = load ptr, ptr %5, align 8, !tbaa !118
  %40 = load ptr, ptr %5, align 8, !tbaa !118
  call void @_ZN2cv9transposeERKNS_11_InputArrayERKNS_12_OutputArrayE(ptr noundef nonnull align 8 dereferenceable(24) %39, ptr noundef nonnull align 8 dereferenceable(24) %40)
  %41 = load ptr, ptr %5, align 8, !tbaa !118
  %42 = load ptr, ptr %5, align 8, !tbaa !118
  call void @_ZN2cv4flipERKNS_11_InputArrayERKNS_12_OutputArrayEi(ptr noundef nonnull align 8 dereferenceable(24) %41, ptr noundef nonnull align 8 dereferenceable(24) %42, i32 noundef 0)
  br label %43

43:                                               ; preds = %3, %36, %31, %24, %21, %16, %13, %8
  ret void
}