; Function Attrs: mustprogress uwtable
define hidden void @_ZN2cv3mcc11CChartModel5rot90ERKNS_17_InputOutputArrayEi(ptr nonnull readnone align 8 captures(none) %0, ptr noundef nonnull align 8 dereferenceable(24) %1, i32 noundef %2) local_unnamed_addr #4 align 2 {
  switch i32 %2, label %10 [
    i32 1, label %4
    i32 2, label %.sink.split
    i32 3, label %5
    i32 4, label %6
    i32 5, label %7
    i32 6, label %8
    i32 7, label %9
  ]

4:                                                ; preds = %3
  tail call void @_ZN2cv9transposeERKNS_11_InputArrayERKNS_12_OutputArrayE(ptr noundef nonnull align 8 dereferenceable(24) %1, ptr noundef nonnull align 8 dereferenceable(24) %1)
  br label %.sink.split

5:                                                ; preds = %3
  tail call void @_ZN2cv9transposeERKNS_11_InputArrayERKNS_12_OutputArrayE(ptr noundef nonnull align 8 dereferenceable(24) %1, ptr noundef nonnull align 8 dereferenceable(24) %1)
  br label %.sink.split

6:                                                ; preds = %3
  br label %.sink.split

7:                                                ; preds = %3
  tail call void @_ZN2cv4flipERKNS_11_InputArrayERKNS_12_OutputArrayEi(ptr noundef nonnull align 8 dereferenceable(24) %1, ptr noundef nonnull align 8 dereferenceable(24) %1, i32 noundef 1)
  tail call void @_ZN2cv9transposeERKNS_11_InputArrayERKNS_12_OutputArrayE(ptr noundef nonnull align 8 dereferenceable(24) %1, ptr noundef nonnull align 8 dereferenceable(24) %1)
  br label %.sink.split

8:                                                ; preds = %3
  tail call void @_ZN2cv4flipERKNS_11_InputArrayERKNS_12_OutputArrayEi(ptr noundef nonnull align 8 dereferenceable(24) %1, ptr noundef nonnull align 8 dereferenceable(24) %1, i32 noundef 1)
  br label %.sink.split

9:                                                ; preds = %3
  tail call void @_ZN2cv4flipERKNS_11_InputArrayERKNS_12_OutputArrayEi(ptr noundef nonnull align 8 dereferenceable(24) %1, ptr noundef nonnull align 8 dereferenceable(24) %1, i32 noundef 1)
  tail call void @_ZN2cv9transposeERKNS_11_InputArrayERKNS_12_OutputArrayE(ptr noundef nonnull align 8 dereferenceable(24) %1, ptr noundef nonnull align 8 dereferenceable(24) %1)
  br label %.sink.split

.sink.split:                                      ; preds = %3, %4, %5, %6, %7, %8, %9
  %.sink = phi i32 [ 0, %9 ], [ -1, %8 ], [ 1, %7 ], [ 1, %6 ], [ 0, %5 ], [ 1, %4 ], [ -1, %3 ]
  tail call void @_ZN2cv4flipERKNS_11_InputArrayERKNS_12_OutputArrayEi(ptr noundef nonnull align 8 dereferenceable(24) %1, ptr noundef nonnull align 8 dereferenceable(24) %1, i32 noundef %.sink)
  br label %10

10:                                               ; preds = %.sink.split, %3
  ret void
}